target datalayout = "e-m:e-p270:32:32-p271:32:32-p272:64:64-i64:64-i128:128-f80:128-n8:16:32:64-S128"
target triple = "x86_64-pc-linux-gnu"

%struct._address = type { i32, i32, ptr, ptr }
%struct._packet_info = type { ptr, ptr, i32, i32, %struct.nstime_t, %struct.nstime_t, %struct.nstime_t, i8, ptr, ptr, ptr, ptr, %struct._address, %struct._address, %struct._address, %struct._address, %struct._address, %struct._address, i32, ptr, i8, [3 x i8], %struct.anon, i32, i32, i32, i32, ptr, i8, ptr, ptr, i16, i16, i32, i32, i16, i32, i32, ptr, ptr, ptr, i8, i8, i16, i16, i16, i32, i16, i16, ptr, ptr, ptr, ptr, ptr, i32, i32 }
%struct.nstime_t = type { i64, i32 }
%struct.anon = type { i8, [3 x i8] }

@.str.3 = private unnamed_addr constant [8 x i8] c"Unknown\00", align 1
@hf_radius_3gpp_ms_tmime_zone = internal global i32 0, align 4
@.str.314 = private unnamed_addr constant [29 x i8] c"GMT %c%d hours %d minutes %s\00", align 1
@.str.315 = private unnamed_addr constant [40 x i8] c"Timezone: GMT %c%d hours %d minutes %s \00", align 1

; Function Attrs: null_pointer_is_valid sspstrong uwtable
define internal ptr @dissect_radius_3gpp_ms_tmime_zone(ptr noundef %0, ptr noundef %1, ptr noundef %2) #0 {
  %4 = alloca ptr, align 8
  %5 = alloca ptr, align 8
  %6 = alloca ptr, align 8
  %7 = alloca i32, align 4
  %8 = alloca i8, align 1
  %9 = alloca i8, align 1
  %10 = alloca i8, align 1
  store ptr %0, ptr %4, align 8
  store ptr %1, ptr %5, align 8
  store ptr %2, ptr %6, align 8
  call void @llvm.lifetime.start.p0(i64 4, ptr %7) #17
  store i32 0, ptr %7, align 4
  call void @llvm.lifetime.start.p0(i64 1, ptr %8) #17
  call void @llvm.lifetime.start.p0(i64 1, ptr %9) #17
  call void @llvm.lifetime.start.p0(i64 1, ptr %10) #17
  %11 = load ptr, ptr %5, align 8
  %12 = load i32, ptr %7, align 4
  %13 = call zeroext i8 @tvb_get_uint8(ptr noundef %11, i32 noundef %12)
  store i8 %13, ptr %8, align 1
  %14 = load i8, ptr %8, align 1
  %15 = zext i8 %14 to i32
  %16 = and i32 %15, 8
  %17 = icmp ne i32 %16, 0
  %18 = select i1 %17, i32 45, i32 43
  %19 = trunc i32 %18 to i8
  store i8 %19, ptr %10, align 1
  %20 = load i8, ptr %8, align 1
  %21 = zext i8 %20 to i32
  %22 = ashr i32 %21, 4
  %23 = load i8, ptr %8, align 1
  %24 = zext i8 %23 to i32
  %25 = and i32 %24, 7
  %26 = mul i32 %25, 10
  %27 = add i32 %22, %26
  %28 = trunc i32 %27 to i8
  store i8 %28, ptr %8, align 1
  %29 = load ptr, ptr %5, align 8
  %30 = load i32, ptr %7, align 4
  %31 = add i32 %30, 1
  %32 = call zeroext i8 @tvb_get_uint8(ptr noundef %29, i32 noundef %31)
  %33 = zext i8 %32 to i32
  %34 = and i32 %33, 3
  %35 = trunc i32 %34 to i8
  store i8 %35, ptr %9, align 1
  %36 = load ptr, ptr %4, align 8
  %37 = load i32, ptr @hf_radius_3gpp_ms_tmime_zone, align 4
  %38 = load ptr, ptr %5, align 8
  %39 = load i32, ptr %7, align 4
  %40 = load i8, ptr %10, align 1
  %41 = sext i8 %40 to i32
  %42 = load i8, ptr %8, align 1
  %43 = zext i8 %42 to i32
  %44 = sdiv i32 %43, 4
  %45 = load i8, ptr %8, align 1
  %46 = zext i8 %45 to i32
  %47 = srem i32 %46, 4
  %48 = mul i32 %47, 15
  %49 = load i8, ptr %9, align 1
  %50 = zext i8 %49 to i32
  %51 = call ptr @val_to_str_const(i32 noundef %50, ptr noundef @daylight_saving_time_vals, ptr noundef @.str.3)
  %52 = call ptr (ptr, i32, ptr, i32, i32, ptr, ptr, ...) @proto_tree_add_bytes_format_value(ptr noundef %36, i32 noundef %37, ptr noundef %38, i32 noundef %39, i32 noundef 2, ptr noundef null, ptr noundef @.str.314, i32 noundef %41, i32 noundef %44, i32 noundef %48, ptr noundef %51)
  %53 = load ptr, ptr %6, align 8
  %54 = getelementptr inbounds nuw %struct._packet_info, ptr %53, i32 0, i32 51
  %55 = load ptr, ptr %54, align 8
  %56 = load i8, ptr %10, align 1
  %57 = sext i8 %56 to i32
  %58 = load i8, ptr %8, align 1
  %59 = zext i8 %58 to i32
  %60 = sdiv i32 %59, 4
  %61 = load i8, ptr %8, align 1
  %62 = zext i8 %61 to i32
  %63 = srem i32 %62, 4
  %64 = mul i32 %63, 15
  %65 = load i8, ptr %9, align 1
  %66 = zext i8 %65 to i32
  %67 = call ptr @val_to_str_const(i32 noundef %66, ptr noundef @daylight_saving_time_vals, ptr noundef @.str.3)
  %68 = call noalias ptr (ptr, ptr, ...) @wmem_strdup_printf(ptr noundef %55, ptr noundef @.str.315, i32 noundef %57, i32 noundef %60, i32 noundef %64, ptr noundef %67)
  call void @llvm.lifetime.end.p0(i64 1, ptr %10) #17
  call void @llvm.lifetime.end.p0(i64 1, ptr %9) #17
  call void @llvm.lifetime.end.p0(i64 1, ptr %8) #17
  call void @llvm.lifetime.end.p0(i64 4, ptr %7) #17
  ret ptr %68
}