; Function Attrs: null_pointer_is_valid sspstrong uwtable
define internal noalias ptr @dissect_radius_3gpp_ms_tmime_zone(ptr noundef %0, ptr noundef %1, ptr noundef readonly captures(none) %2) #0 {
  %4 = tail call zeroext i8 @tvb_get_uint8(ptr noundef %1, i32 noundef 0)
  %5 = and i8 %4, 8
  %.not = icmp eq i8 %5, 0
  %6 = select i1 %.not, i32 43, i32 45
  %7 = lshr i8 %4, 4
  %8 = and i8 %4, 7
  %9 = mul nuw nsw i8 %8, 10
  %10 = add nuw nsw i8 %9, %7
  %11 = tail call zeroext i8 @tvb_get_uint8(ptr noundef %1, i32 noundef 1)
  %12 = and i8 %11, 3
  %13 = load i32, ptr @hf_radius_3gpp_ms_tmime_zone, align 4
  %14 = zext nneg i8 %10 to i32
  %15 = lshr i32 %14, 2
  %16 = and i32 %14, 3
  %17 = mul nuw nsw i32 %16, 15
  %18 = zext nneg i8 %12 to i32
  %19 = tail call ptr @val_to_str_const(i32 noundef %18, ptr noundef nonnull @daylight_saving_time_vals, ptr noundef nonnull @.str.3)
  %20 = tail call ptr (ptr, i32, ptr, i32, i32, ptr, ptr, ...) @proto_tree_add_bytes_format_value(ptr noundef %0, i32 noundef %13, ptr noundef %1, i32 noundef 0, i32 noundef 2, ptr noundef null, ptr noundef nonnull @.str.314, i32 noundef %6, i32 noundef %15, i32 noundef %17, ptr noundef %19)
  %21 = getelementptr inbounds nuw i8, ptr %2, i64 408
  %22 = load ptr, ptr %21, align 8
  %23 = tail call ptr @val_to_str_const(i32 noundef %18, ptr noundef nonnull @daylight_saving_time_vals, ptr noundef nonnull @.str.3)
  %24 = tail call noalias ptr (ptr, ptr, ...) @wmem_strdup_printf(ptr noundef %22, ptr noundef nonnull @.str.315, i32 noundef %6, i32 noundef %15, i32 noundef %17, ptr noundef %23)
  ret ptr %24
}